; Function Attrs: nounwind uwtable
define dso_local ptr @tuplesort_getheaptuple(ptr noundef %0, i1 noundef zeroext %1) local_unnamed_addr #0 {
  %3 = alloca %struct.SortTuple, align 8
  %4 = getelementptr inbounds nuw i8, ptr %0, i64 56
  %5 = load ptr, ptr %4, align 8
  %6 = load ptr, ptr @CurrentMemoryContext, align 8
  store ptr %5, ptr @CurrentMemoryContext, align 8
  call void @llvm.lifetime.start.p0(i64 24, ptr nonnull %3) #12
  %7 = call zeroext i1 @tuplesort_gettuple_common(ptr noundef %0, i1 noundef zeroext %1, ptr noundef nonnull %3) #12
  %.pre = load ptr, ptr %3, align 8
  %8 = select i1 %7, ptr %.pre, ptr null
  store ptr %6, ptr @CurrentMemoryContext, align 8
  call void @llvm.lifetime.end.p0(i64 24, ptr nonnull %3) #12
  ret ptr %8
}